target datalayout = "e-m:e-p270:32:32-p271:32:32-p272:64:64-i64:64-i128:128-f80:128-n8:16:32:64-S128"
target triple = "x86_64-pc-linux-gnu"

%struct.Vec_Int_t_ = type { i32, i32, ptr }

@.str.1 = private unnamed_addr constant [7 x i8] c"%4d : \00", align 1
@.str.2 = private unnamed_addr constant [13 x i8] c"Supp = %3d  \00", align 1
@.str.3 = private unnamed_addr constant [13 x i8] c"Cone = %3d  \00", align 1
@.str.4 = private unnamed_addr constant [2 x i8] c"\0A\00", align 1
@.str.5 = private unnamed_addr constant [61 x i8] c"Remaining cones:  Count = %d.  SuppMax = %d.  ConeMax = %d.\0A\00", align 1

; Function Attrs: inlinehint nounwind uwtable
define internal i32 @Abc_MaxInt(i32 noundef %0, i32 noundef %1) #3 {
  %3 = alloca i32, align 4
  %4 = alloca i32, align 4
  store i32 %0, ptr %3, align 4, !tbaa !12
  store i32 %1, ptr %4, align 4, !tbaa !12
  %5 = load i32, ptr %3, align 4, !tbaa !12
  %6 = load i32, ptr %4, align 4, !tbaa !12
  %7 = icmp sgt i32 %5, %6
  br i1 %7, label %8, label %10

8:                                                ; preds = %2
  %9 = load i32, ptr %3, align 4, !tbaa !12
  br label %12

10:                                               ; preds = %2
  %11 = load i32, ptr %4, align 4, !tbaa !12
  br label %12

12:                                               ; preds = %10, %8
  %13 = phi i32 [ %9, %8 ], [ %11, %10 ]
  ret i32 %13
}

; Function Attrs: inlinehint nounwind uwtable
define internal i32 @Vec_IntEntry(ptr noundef %0, i32 noundef %1) #3 {
  %3 = alloca ptr, align 8
  %4 = alloca i32, align 4
  store ptr %0, ptr %3, align 8, !tbaa !10
  store i32 %1, ptr %4, align 4, !tbaa !12
  %5 = load ptr, ptr %3, align 8, !tbaa !10
  %6 = getelementptr inbounds nuw %struct.Vec_Int_t_, ptr %5, i32 0, i32 2
  %7 = load ptr, ptr %6, align 8, !tbaa !36
  %8 = load i32, ptr %4, align 4, !tbaa !12
  %9 = sext i32 %8 to i64
  %10 = getelementptr inbounds i32, ptr %7, i64 %9
  %11 = load i32, ptr %10, align 4, !tbaa !12
  ret i32 %11
}

; Function Attrs: inlinehint nounwind uwtable
define internal i32 @Vec_IntSize(ptr noundef %0) #3 {
  %2 = alloca ptr, align 8
  store ptr %0, ptr %2, align 8, !tbaa !10
  %3 = load ptr, ptr %2, align 8, !tbaa !10
  %4 = getelementptr inbounds nuw %struct.Vec_Int_t_, ptr %3, i32 0, i32 1
  %5 = load i32, ptr %4, align 4, !tbaa !34
  ret i32 %5
}

; Function Attrs: nounwind uwtable
define void @Gia_PolynCorePrintCones(ptr noundef %0, ptr noundef %1, i32 noundef %2) #0 {
  %4 = alloca ptr, align 8
  %5 = alloca ptr, align 8
  %6 = alloca i32, align 4
  %7 = alloca i32, align 4
  %8 = alloca i32, align 4
  %9 = alloca i32, align 4
  %10 = alloca i32, align 4
  store ptr %0, ptr %4, align 8, !tbaa !3
  store ptr %1, ptr %5, align 8, !tbaa !10
  store i32 %2, ptr %6, align 4, !tbaa !12
  call void @llvm.lifetime.start.p0(i64 4, ptr %7) #13
  call void @llvm.lifetime.start.p0(i64 4, ptr %8) #13
  %11 = load i32, ptr %6, align 4, !tbaa !12
  %12 = icmp ne i32 %11, 0
  br i1 %12, label %13, label %39

13:                                               ; preds = %3
  store i32 0, ptr %7, align 4, !tbaa !12
  br label %14

14:                                               ; preds = %35, %13
  %15 = load i32, ptr %7, align 4, !tbaa !12
  %16 = load ptr, ptr %5, align 8, !tbaa !10
  %17 = call i32 @Vec_IntSize(ptr noundef %16)
  %18 = icmp slt i32 %15, %17
  br i1 %18, label %19, label %23

19:                                               ; preds = %14
  %20 = load ptr, ptr %5, align 8, !tbaa !10
  %21 = load i32, ptr %7, align 4, !tbaa !12
  %22 = call i32 @Vec_IntEntry(ptr noundef %20, i32 noundef %21)
  store i32 %22, ptr %8, align 4, !tbaa !12
  br label %23

23:                                               ; preds = %19, %14
  %24 = phi i1 [ false, %14 ], [ true, %19 ]
  br i1 %24, label %25, label %38

25:                                               ; preds = %23
  %26 = load i32, ptr %7, align 4, !tbaa !12
  %27 = call i32 (ptr, ...) @printf(ptr noundef @.str.1, i32 noundef %26)
  %28 = load ptr, ptr %4, align 8, !tbaa !3
  %29 = call i32 @Gia_ManSuppSize(ptr noundef %28, ptr noundef %8, i32 noundef 1)
  %30 = call i32 (ptr, ...) @printf(ptr noundef @.str.2, i32 noundef %29)
  %31 = load ptr, ptr %4, align 8, !tbaa !3
  %32 = call i32 @Gia_ManConeSize(ptr noundef %31, ptr noundef %8, i32 noundef 1)
  %33 = call i32 (ptr, ...) @printf(ptr noundef @.str.3, i32 noundef %32)
  %34 = call i32 (ptr, ...) @printf(ptr noundef @.str.4)
  br label %35

35:                                               ; preds = %25
  %36 = load i32, ptr %7, align 4, !tbaa !12
  %37 = add nsw i32 %36, 1
  store i32 %37, ptr %7, align 4, !tbaa !12
  br label %14, !llvm.loop !69

38:                                               ; preds = %23
  br label %69

39:                                               ; preds = %3
  call void @llvm.lifetime.start.p0(i64 4, ptr %9) #13
  store i32 0, ptr %9, align 4, !tbaa !12
  call void @llvm.lifetime.start.p0(i64 4, ptr %10) #13
  store i32 0, ptr %10, align 4, !tbaa !12
  store i32 0, ptr %7, align 4, !tbaa !12
  br label %40

40:                                               ; preds = %60, %39
  %41 = load i32, ptr %7, align 4, !tbaa !12
  %42 = load ptr, ptr %5, align 8, !tbaa !10
  %43 = call i32 @Vec_IntSize(ptr noundef %42)
  %44 = icmp slt i32 %41, %43
  br i1 %44, label %45, label %49

45:                                               ; preds = %40
  %46 = load ptr, ptr %5, align 8, !tbaa !10
  %47 = load i32, ptr %7, align 4, !tbaa !12
  %48 = call i32 @Vec_IntEntry(ptr noundef %46, i32 noundef %47)
  store i32 %48, ptr %8, align 4, !tbaa !12
  br label %49

49:                                               ; preds = %45, %40
  %50 = phi i1 [ false, %40 ], [ true, %45 ]
  br i1 %50, label %51, label %63

51:                                               ; preds = %49
  %52 = load i32, ptr %9, align 4, !tbaa !12
  %53 = load ptr, ptr %4, align 8, !tbaa !3
  %54 = call i32 @Gia_ManSuppSize(ptr noundef %53, ptr noundef %8, i32 noundef 1)
  %55 = call i32 @Abc_MaxInt(i32 noundef %52, i32 noundef %54)
  store i32 %55, ptr %9, align 4, !tbaa !12
  %56 = load i32, ptr %10, align 4, !tbaa !12
  %57 = load ptr, ptr %4, align 8, !tbaa !3
  %58 = call i32 @Gia_ManConeSize(ptr noundef %57, ptr noundef %8, i32 noundef 1)
  %59 = call i32 @Abc_MaxInt(i32 noundef %56, i32 noundef %58)
  store i32 %59, ptr %10, align 4, !tbaa !12
  br label %60

60:                                               ; preds = %51
  %61 = load i32, ptr %7, align 4, !tbaa !12
  %62 = add nsw i32 %61, 1
  store i32 %62, ptr %7, align 4, !tbaa !12
  br label %40, !llvm.loop !70

63:                                               ; preds = %49
  %64 = load ptr, ptr %5, align 8, !tbaa !10
  %65 = call i32 @Vec_IntSize(ptr noundef %64)
  %66 = load i32, ptr %9, align 4, !tbaa !12
  %67 = load i32, ptr %10, align 4, !tbaa !12
  %68 = call i32 (ptr, ...) @printf(ptr noundef @.str.5, i32 noundef %65, i32 noundef %66, i32 noundef %67)
  call void @llvm.lifetime.end.p0(i64 4, ptr %10) #13
  call void @llvm.lifetime.end.p0(i64 4, ptr %9) #13
  br label %69

69:                                               ; preds = %63, %38
  call void @llvm.lifetime.end.p0(i64 4, ptr %8) #13
  call void @llvm.lifetime.end.p0(i64 4, ptr %7) #13
  ret void
}