; Function Attrs: nounwind uwtable
define void @Gia_PolynCorePrintCones(ptr noundef %0, ptr noundef readonly captures(none) %1, i32 noundef %2) local_unnamed_addr #0 {
  %4 = alloca i32, align 4
  call void @llvm.lifetime.start.p0(i64 4, ptr nonnull %4) #19
  %.not = icmp eq i32 %2, 0
  %5 = getelementptr i8, ptr %1, i64 4
  %.val2431 = load i32, ptr %5, align 4, !tbaa !29
  %6 = icmp sgt i32 %.val2431, 0
  br i1 %.not, label %.preheader, label %.preheader28

.preheader28:                                     ; preds = %3
  br i1 %6, label %.lr.ph, label %.critedge

.lr.ph:                                           ; preds = %.preheader28
  %7 = getelementptr i8, ptr %1, i64 8
  br label %9

.preheader:                                       ; preds = %3
  br i1 %6, label %.lr.ph35, label %.critedge2

.lr.ph35:                                         ; preds = %.preheader
  %8 = getelementptr i8, ptr %1, i64 8
  br label %20

9:                                                ; preds = %.lr.ph, %9
  %indvars.iv = phi i64 [ 0, %.lr.ph ], [ %indvars.iv.next, %9 ]
  %.val27 = load ptr, ptr %7, align 8, !tbaa !31
  %10 = getelementptr inbounds nuw i32, ptr %.val27, i64 %indvars.iv
  %11 = load i32, ptr %10, align 4, !tbaa !32
  store i32 %11, ptr %4, align 4, !tbaa !32
  %12 = trunc nuw nsw i64 %indvars.iv to i32
  %13 = call i32 (ptr, ...) @printf(ptr noundef nonnull dereferenceable(1) @.str.1, i32 noundef %12)
  %14 = call i32 @Gia_ManSuppSize(ptr noundef %0, ptr noundef nonnull %4, i32 noundef 1) #19
  %15 = call i32 (ptr, ...) @printf(ptr noundef nonnull dereferenceable(1) @.str.2, i32 noundef %14)
  %16 = call i32 @Gia_ManConeSize(ptr noundef %0, ptr noundef nonnull %4, i32 noundef 1) #19
  %17 = call i32 (ptr, ...) @printf(ptr noundef nonnull dereferenceable(1) @.str.3, i32 noundef %16)
  %putchar = call i32 @putchar(i32 10)
  %indvars.iv.next = add nuw nsw i64 %indvars.iv, 1
  %.val25 = load i32, ptr %5, align 4, !tbaa !29
  %18 = sext i32 %.val25 to i64
  %19 = icmp slt i64 %indvars.iv.next, %18
  br i1 %19, label %9, label %.critedge, !llvm.loop !69

20:                                               ; preds = %.lr.ph35, %20
  %indvars.iv41 = phi i64 [ 0, %.lr.ph35 ], [ %indvars.iv.next42, %20 ]
  %.034 = phi i32 [ 0, %.lr.ph35 ], [ %26, %20 ]
  %.02233 = phi i32 [ 0, %.lr.ph35 ], [ %24, %20 ]
  %.val26 = load ptr, ptr %8, align 8, !tbaa !31
  %21 = getelementptr inbounds nuw i32, ptr %.val26, i64 %indvars.iv41
  %22 = load i32, ptr %21, align 4, !tbaa !32
  store i32 %22, ptr %4, align 4, !tbaa !32
  %23 = call i32 @Gia_ManSuppSize(ptr noundef %0, ptr noundef nonnull %4, i32 noundef 1) #19
  %24 = call noundef i32 @llvm.smax.i32(i32 %.02233, i32 %23)
  %25 = call i32 @Gia_ManConeSize(ptr noundef %0, ptr noundef nonnull %4, i32 noundef 1) #19
  %26 = call noundef i32 @llvm.smax.i32(i32 %.034, i32 %25)
  %indvars.iv.next42 = add nuw nsw i64 %indvars.iv41, 1
  %.val24 = load i32, ptr %5, align 4, !tbaa !29
  %27 = sext i32 %.val24 to i64
  %28 = icmp slt i64 %indvars.iv.next42, %27
  br i1 %28, label %20, label %.critedge2, !llvm.loop !70

.critedge2:                                       ; preds = %20, %.preheader
  %.022.lcssa = phi i32 [ 0, %.preheader ], [ %24, %20 ]
  %.0.lcssa = phi i32 [ 0, %.preheader ], [ %26, %20 ]
  %.val24.lcssa = phi i32 [ %.val2431, %.preheader ], [ %.val24, %20 ]
  %29 = call i32 (ptr, ...) @printf(ptr noundef nonnull dereferenceable(1) @.str.5, i32 noundef %.val24.lcssa, i32 noundef %.022.lcssa, i32 noundef %.0.lcssa)
  br label %.critedge

.critedge:                                        ; preds = %9, %.preheader28, %.critedge2
  call void @llvm.lifetime.end.p0(i64 4, ptr nonnull %4) #19
  ret void
}